BL51 BANKED LINKER/LOCATER V6.22                                                        05/20/2015  17:32:42  PAGE 1


BL51 BANKED LINKER/LOCATER V6.22, INVOKED BY:
D:\KEIL\C51\BIN\BL51.EXE .\output\STARTUP.obj, .\output\mcu_test.obj, .\output\mcu_PWM.obj, .\output\config.obj TO .\out
>> put\mcu_test PRINT (.\mcu_test.m51) RAMSIZE (256)


MEMORY MODEL: SMALL


INPUT MODULES INCLUDED:
  .\output\STARTUP.obj (?C_STARTUP)
  .\output\mcu_test.obj (MCU_TEST)
  .\output\mcu_PWM.obj (MCU_PWM)
  .\output\config.obj (CONFIG)
  D:\KEIL\C51\LIB\C51S.LIB (?C_INIT)
  D:\KEIL\C51\LIB\C51S.LIB (?C?CLDPTR)
  D:\KEIL\C51\LIB\C51S.LIB (?C?IMUL)
  D:\KEIL\C51\LIB\C51S.LIB (?C?SIDIV)
  D:\KEIL\C51\LIB\C51S.LIB (?C?LMUL)
  D:\KEIL\C51\LIB\C51S.LIB (?C?SLDIV)
  D:\KEIL\C51\LIB\C51S.LIB (?C?SLCMP)
  D:\KEIL\C51\LIB\C51S.LIB (?C?UIDIV)
  D:\KEIL\C51\LIB\C51S.LIB (?C?ULDIV)


LINK MAP OF MODULE:  .\output\mcu_test (?C_STARTUP)


            TYPE    BASE      LENGTH    RELOCATION   SEGMENT NAME
            -----------------------------------------------------

            * * * * * * *   D A T A   M E M O R Y   * * * * * * *
            REG     0000H     0008H     ABSOLUTE     "REG BANK 0"
            DATA    0008H     0023H     UNIT         ?DT?MCU_TEST
            DATA    002BH     0008H     UNIT         _DATA_GROUP_
            IDATA   0033H     0001H     UNIT         ?STACK

            * * * * * * *   C O D E   M E M O R Y   * * * * * * *
            CODE    0000H     0003H     ABSOLUTE     
            CODE    0003H     0008H     UNIT         ?PR?_UART1_SEND_BYTE?CONFIG
            CODE    000BH     0003H     ABSOLUTE     
            CODE    000EH     01E9H     UNIT         ?C?LIB_CODE
            CODE    01F7H     00ECH     UNIT         ?PR?MAIN?MCU_TEST
            CODE    02E3H     008CH     UNIT         ?C_C51STARTUP
            CODE    036FH     0084H     UNIT         ?PR?SHOW?MCU_TEST
            CODE    03F3H     006AH     UNIT         ?PR?MEASURE_DISTANCE?MCU_TEST
            CODE    045DH     0044H     UNIT         ?C?LDIV
            CODE    04A1H     003DH     UNIT         ?PR?TIMER0?MCU_TEST
            CODE    04DEH     0027H     UNIT         ?PR?_ADDPWM?MCU_PWM
            CODE    0505H     0026H     UNIT         ?PR?_SETPWM?MCU_PWM
            CODE    052BH     0025H     UNIT         ?PR?_UART1_SEND_STRING?CONFIG
            CODE    0550H     0020H     UNIT         ?PR?_DELAY_XMS?MCU_TEST
            CODE    0570H     001DH     UNIT         ?PR?_REDUCEPWM?MCU_PWM
            CODE    058DH     001BH     UNIT         ?PR?_DELAYT?MCU_TEST
            CODE    05A8H     0017H     UNIT         ?PR?PWMINIT?MCU_PWM
            CODE    05BFH     0014H     UNIT         ?PR?UARTINIT?CONFIG
            CODE    05D3H     0013H     UNIT         ?C_INITSEG
            CODE    05E6H     0010H     UNIT         ?PR?INIT_PARAMETER?MCU_TEST
            CODE    05F6H     000EH     UNIT         ?CO?MCU_TEST
BL51 BANKED LINKER/LOCATER V6.22                                                      05/20/2015  17:32:42  PAGE 2


            CODE    0604H     000CH     UNIT         ?PR?TRIG_SUPERSONIC?MCU_TEST
            CODE    0610H     000BH     UNIT         ?PR?INIT_MCU?MCU_TEST



OVERLAY MAP OF MODULE:   .\output\mcu_test (?C_STARTUP)


SEGMENT                                 DATA_GROUP 
  +--> CALLED SEGMENT                 START    LENGTH
-----------------------------------------------------
?C_C51STARTUP                         -----    -----
  +--> ?PR?MAIN?MCU_TEST
  +--> ?C_INITSEG

?PR?MAIN?MCU_TEST                     002BH    0002H
  +--> ?PR?INIT_MCU?MCU_TEST
  +--> ?PR?INIT_PARAMETER?MCU_TEST
  +--> ?PR?UARTINIT?CONFIG
  +--> ?PR?_DELAY_XMS?MCU_TEST
  +--> ?PR?TRIG_SUPERSONIC?MCU_TEST
  +--> ?PR?MEASURE_DISTANCE?MCU_TEST
  +--> ?PR?_DELAYT?MCU_TEST
  +--> ?PR?SHOW?MCU_TEST
  +--> ?CO?MCU_TEST
  +--> ?PR?_UART1_SEND_STRING?CONFIG

?PR?TRIG_SUPERSONIC?MCU_TEST          -----    -----
  +--> ?PR?_DELAYT?MCU_TEST

?PR?MEASURE_DISTANCE?MCU_TEST         -----    -----
  +--> ?PR?_DELAYT?MCU_TEST

?PR?SHOW?MCU_TEST                     002DH    0006H

?PR?_UART1_SEND_STRING?CONFIG         002DH    0003H
  +--> ?PR?_UART1_SEND_BYTE?CONFIG



SYMBOL TABLE OF MODULE:  .\output\mcu_test (?C_STARTUP)

  VALUE           TYPE          NAME
  ----------------------------------

  -------         MODULE        ?C_STARTUP
  C:02E3H         SEGMENT       ?C_C51STARTUP
  I:0033H         SEGMENT       ?STACK
  C:0000H         PUBLIC        ?C_STARTUP
  D:00E0H         SYMBOL        ACC
  D:00F0H         SYMBOL        B
  D:0083H         SYMBOL        DPH
  D:0082H         SYMBOL        DPL
  N:0000H         SYMBOL        IBPSTACK
  N:0100H         SYMBOL        IBPSTACKTOP
  N:0080H         SYMBOL        IDATALEN
  C:02E6H         SYMBOL        IDATALOOP
BL51 BANKED LINKER/LOCATER V6.22                                                      05/20/2015  17:32:42  PAGE 3


  N:0000H         SYMBOL        PBPSTACK
  N:0100H         SYMBOL        PBPSTACKTOP
  N:0000H         SYMBOL        PDATALEN
  N:0000H         SYMBOL        PDATASTART
  N:0000H         SYMBOL        PPAGE
  N:0000H         SYMBOL        PPAGEENABLE
  D:00A0H         SYMBOL        PPAGE_SFR
  D:0081H         SYMBOL        SP
  C:02E3H         SYMBOL        STARTUP1
  N:0000H         SYMBOL        XBPSTACK
  N:0000H         SYMBOL        XBPSTACKTOP
  N:0000H         SYMBOL        XDATALEN
  N:0000H         SYMBOL        XDATASTART
  C:0000H         LINE#         126
  C:02E3H         LINE#         133
  C:02E5H         LINE#         134
  C:02E6H         LINE#         135
  C:02E7H         LINE#         136
  C:02E9H         LINE#         185
  C:02ECH         LINE#         196
  -------         ENDMOD        ?C_STARTUP

  -------         MODULE        MCU_TEST
  C:0000H         SYMBOL        _ICE_DUMMY_
  D:0090H         PUBLIC        P1
  D:00A0H         PUBLIC        P2
  B:00A8H.7       PUBLIC        EA
  C:058DH         PUBLIC        _delayt
  C:0604H         PUBLIC        Trig_SuperSonic
  C:0550H         PUBLIC        _Delay_xMs
  D:00A8H         PUBLIC        IE
  B:00A0H.6       PUBLIC        INPUT
  D:00B8H         PUBLIC        IP
  C:05E6H         PUBLIC        Init_Parameter
  D:00D8H         PUBLIC        CCON
  C:01F7H         PUBLIC        main
  D:0008H         PUBLIC        count
  D:0098H         PUBLIC        SCON
  D:0088H         PUBLIC        TCON
  D:0009H         PUBLIC        DPWM
  C:036FH         PUBLIC        show
  D:000BH         PUBLIC        DArray
  D:001FH         PUBLIC        TPWM
  B:00A8H.1       PUBLIC        ET0
  B:0088H.5       PUBLIC        TF0
  D:008CH         PUBLIC        TH0
  D:0021H         PUBLIC        distance
  D:008AH         PUBLIC        TL0
  C:04A1H         PUBLIC        timer0
  B:0088H.4       PUBLIC        TR0
  C:0610H         PUBLIC        Init_MCU
  D:0025H         PUBLIC        Dflag
  D:0027H         PUBLIC        a
  C:03F3H         PUBLIC        Measure_Distance
  B:00A0H.7       PUBLIC        OUTPUT
  B:0090H.3       PUBLIC        PWM
  D:00D0H         PUBLIC        PSW
BL51 BANKED LINKER/LOCATER V6.22                                                      05/20/2015  17:32:42  PAGE 4


  -------         PROC          SHOW
  -------         DO            
  D:002DH         SYMBOL        ge
  D:002FH         SYMBOL        shi
  D:0031H         SYMBOL        bai
  -------         ENDDO         
  C:036FH         LINE#         28
  C:036FH         LINE#         29
  C:036FH         LINE#         31
  C:0388H         LINE#         32
  C:03AAH         LINE#         33
  C:03CCH         LINE#         34
  C:03E3H         LINE#         35
  C:03E9H         LINE#         36
  C:03EFH         LINE#         37
  C:03F2H         LINE#         38
  -------         ENDPROC       SHOW
  -------         PROC          _DELAY_XMS
  D:0006H         SYMBOL        x
  -------         DO            
  D:0004H         SYMBOL        i
  D:0002H         SYMBOL        j
  -------         ENDDO         
  C:0550H         LINE#         46
  C:0550H         LINE#         47
  C:0550H         LINE#         49
  C:055AH         LINE#         50
  C:055AH         LINE#         51
  C:055DH         LINE#         52
  C:055DH         LINE#         54
  C:0568H         LINE#         55
  C:056FH         LINE#         56
  -------         ENDPROC       _DELAY_XMS
  -------         PROC          _DELAYT
  D:0006H         SYMBOL        x
  -------         DO            
  D:0005H         SYMBOL        j
  -------         ENDDO         
  C:058DH         LINE#         64
  C:058DH         LINE#         65
  C:058DH         LINE#         67
  C:059CH         LINE#         68
  C:059CH         LINE#         69
  C:05A4H         LINE#         70
  C:05A4H         LINE#         72
  C:05A7H         LINE#         73
  C:05A7H         LINE#         74
  -------         ENDPROC       _DELAYT
  -------         PROC          INIT_MCU
  C:0610H         LINE#         82
  C:0610H         LINE#         83
  C:0610H         LINE#         87
  C:0613H         LINE#         88
  C:0616H         LINE#         89
  C:0618H         LINE#         90
  C:061AH         LINE#         91
  -------         ENDPROC       INIT_MCU
BL51 BANKED LINKER/LOCATER V6.22                                                      05/20/2015  17:32:42  PAGE 5


  -------         PROC          INIT_PARAMETER
  C:05E6H         LINE#         100
  C:05E6H         LINE#         101
  C:05E6H         LINE#         102
  C:05E8H         LINE#         103
  C:05EAH         LINE#         104
  C:05EDH         LINE#         105
  C:05F5H         LINE#         106
  -------         ENDPROC       INIT_PARAMETER
  -------         PROC          TRIG_SUPERSONIC
  C:0604H         LINE#         115
  C:0604H         LINE#         116
  C:0604H         LINE#         117
  C:0606H         LINE#         118
  C:060DH         LINE#         119
  C:060FH         LINE#         120
  -------         ENDPROC       TRIG_SUPERSONIC
  -------         PROC          MEASURE_DISTANCE
  -------         DO            
  D:0005H         SYMBOL        l
  D:0006H         SYMBOL        h
  D:0002H         SYMBOL        y
  -------         ENDDO         
  C:03F3H         LINE#         129
  C:03F3H         LINE#         130
  C:03F3H         LINE#         133
  C:03F5H         LINE#         134
  C:03F8H         LINE#         135
  C:03F8H         LINE#         137
  C:03F8H         LINE#         138
  C:03FAH         LINE#         139
  C:03FCH         LINE#         140
  C:03FEH         LINE#         141
  C:040AH         LINE#         142
  C:0412H         LINE#         143
  C:042CH         LINE#         144
  C:042FH         LINE#         145
  C:0432H         LINE#         146
  C:0438H         LINE#         147
  C:045CH         LINE#         148
  -------         ENDPROC       MEASURE_DISTANCE
  -------         PROC          MAIN
  -------         DO            
  D:002BH         SYMBOL        Dtemp
  D:0002H         SYMBOL        i
  -------         ENDDO         
  C:01F7H         LINE#         157
  C:01F7H         LINE#         158
  C:01F7H         LINE#         159
  C:01FCH         LINE#         160
  C:01FFH         LINE#         161
  C:0202H         LINE#         162
  C:0205H         LINE#         164
  C:020CH         LINE#         165
  C:020CH         LINE#         166
  C:020CH         LINE#         168
  C:020FH         LINE#         169
BL51 BANKED LINKER/LOCATER V6.22                                                      05/20/2015  17:32:42  PAGE 6


  C:0212H         LINE#         170
  C:0212H         LINE#         172
  C:0212H         LINE#         173
  C:0215H         LINE#         174
  C:022AH         LINE#         175
  C:0231H         LINE#         177
  C:023CH         LINE#         178
  C:023CH         LINE#         180
  C:0250H         LINE#         181
  C:0259H         LINE#         182
  C:025DH         LINE#         183
  C:025FH         LINE#         184
  C:025FH         LINE#         185
  C:0281H         LINE#         186
  C:028CH         LINE#         187
  C:02A5H         LINE#         188
  C:02B9H         LINE#         189
  C:02B9H         LINE#         190
  C:02BFH         LINE#         192
  C:02BFH         LINE#         194
  C:02BFH         LINE#         195
  C:02BFH         LINE#         196
  C:02BFH         LINE#         198
  C:02BFH         LINE#         199
  C:02BFH         LINE#         200
  C:02C2H         LINE#         201
  C:02CBH         LINE#         202
  C:02D4H         LINE#         203
  C:02DDH         LINE#         204
  C:02DDH         LINE#         205
  C:02E0H         LINE#         207
  -------         ENDPROC       MAIN
  -------         PROC          TIMER0
  C:04A1H         LINE#         217
  C:04A5H         LINE#         219
  C:04A7H         LINE#         220
  C:04AAH         LINE#         221
  C:04ADH         LINE#         222
  C:04AFH         LINE#         223
  C:04B7H         LINE#         224
  C:04B9H         LINE#         225
  C:04C1H         LINE#         226
  C:04C1H         LINE#         227
  C:04C7H         LINE#         228
  C:04C9H         LINE#         229
  C:04C9H         LINE#         230
  C:04CEH         LINE#         231
  C:04CEH         LINE#         233
  C:04D0H         LINE#         234
  C:04D3H         LINE#         235
  C:04D6H         LINE#         236
  C:04D9H         LINE#         237
  C:04D9H         LINE#         238
  -------         ENDPROC       TIMER0
  -------         ENDMOD        MCU_TEST

  -------         MODULE        MCU_PWM
BL51 BANKED LINKER/LOCATER V6.22                                                      05/20/2015  17:32:42  PAGE 7


  C:0000H         SYMBOL        _ICE_DUMMY_
  D:0090H         PUBLIC        P1
  D:00F9H         PUBLIC        CH
  C:05A8H         PUBLIC        PWMInit
  D:00A8H         PUBLIC        IE
  D:00E9H         PUBLIC        CL
  D:00FAH         PUBLIC        CCAP0H
  D:00EAH         PUBLIC        CCAP0L
  B:00D8H.6       PUBLIC        CR
  D:00DAH         PUBLIC        CCAPM0
  D:00B8H         PUBLIC        IP
  C:04DEH         PUBLIC        _addPWM
  D:00D9H         PUBLIC        CMOD
  D:00D8H         PUBLIC        CCON
  D:0098H         PUBLIC        SCON
  D:0088H         PUBLIC        TCON
  C:0505H         PUBLIC        _setPWM
  D:00F2H         PUBLIC        PCA_PWM0
  C:0570H         PUBLIC        _reducePWM
  D:00D0H         PUBLIC        PSW
  -------         PROC          PWMINIT
  C:05A8H         LINE#         7
  C:05A8H         LINE#         8
  C:05A8H         LINE#         9
  C:05ABH         LINE#         10
  C:05ADH         LINE#         11
  C:05AFH         LINE#         12
  C:05B1H         LINE#         13
  C:05B3H         LINE#         14
  C:05B6H         LINE#         15
  C:05B9H         LINE#         16
  C:05BCH         LINE#         17
  C:05BEH         LINE#         19
  -------         ENDPROC       PWMINIT
  -------         PROC          _ADDPWM
  D:0007H         SYMBOL        dat
  C:04DEH         LINE#         20
  C:04DEH         LINE#         21
  C:04DEH         LINE#         22
  C:04F3H         LINE#         23
  C:04F3H         LINE#         24
  C:04F6H         LINE#         25
  C:04F9H         LINE#         26
  C:04FAH         LINE#         28
  C:04FAH         LINE#         29
  C:04FFH         LINE#         30
  C:0504H         LINE#         31
  C:0504H         LINE#         32
  -------         ENDPROC       _ADDPWM
  -------         PROC          _REDUCEPWM
  D:0007H         SYMBOL        dat
  C:0570H         LINE#         33
  C:0570H         LINE#         34
  C:0570H         LINE#         35
  C:0579H         LINE#         36
  C:0579H         LINE#         37
  C:057CH         LINE#         38
BL51 BANKED LINKER/LOCATER V6.22                                                      05/20/2015  17:32:42  PAGE 8


  C:057FH         LINE#         39
  C:0580H         LINE#         41
  C:0580H         LINE#         42
  C:0586H         LINE#         43
  C:058CH         LINE#         44
  C:058CH         LINE#         45
  -------         ENDPROC       _REDUCEPWM
  -------         PROC          _SETPWM
  D:0007H         SYMBOL        dat
  C:0505H         LINE#         46
  C:0505H         LINE#         47
  C:0505H         LINE#         48
  C:0514H         LINE#         49
  C:0514H         LINE#         50
  C:0514H         LINE#         51
  C:0514H         LINE#         52
  C:0514H         LINE#         53
  C:0516H         LINE#         54
  C:0516H         LINE#         55
  C:0519H         LINE#         56
  C:051CH         LINE#         57
  C:051DH         LINE#         58
  C:051DH         LINE#         59
  C:0520H         LINE#         60
  C:0523H         LINE#         61
  C:0524H         LINE#         62
  C:0527H         LINE#         64
  C:052AH         LINE#         65
  C:052AH         LINE#         66
  C:052AH         LINE#         68
  -------         ENDPROC       _SETPWM
  -------         ENDMOD        MCU_PWM

  -------         MODULE        CONFIG
  C:0000H         SYMBOL        _ICE_DUMMY_
  B:00A8H.7       PUBLIC        EA
  D:00A8H         PUBLIC        IE
  D:00B8H         PUBLIC        IP
  B:0098H.1       PUBLIC        TI
  D:00D8H         PUBLIC        CCON
  D:0099H         PUBLIC        SBUF
  D:0087H         PUBLIC        PCON
  D:0098H         PUBLIC        SCON
  C:05BFH         PUBLIC        UartInit
  D:0089H         PUBLIC        TMOD
  D:0088H         PUBLIC        TCON
  C:052BH         PUBLIC        _UART1_Send_String
  D:008DH         PUBLIC        TH1
  D:008BH         PUBLIC        TL1
  C:0003H         PUBLIC        _UART1_Send_Byte
  B:0088H.6       PUBLIC        TR1
  D:00D0H         PUBLIC        PSW
  -------         PROC          _UART1_SEND_BYTE
  D:0007H         SYMBOL        ddata
  C:0003H         LINE#         4
  C:0003H         LINE#         5
  C:0003H         LINE#         6
BL51 BANKED LINKER/LOCATER V6.22                                                      05/20/2015  17:32:42  PAGE 9


  C:0005H         LINE#         7
  C:0008H         LINE#         8
  C:000AH         LINE#         9
  -------         ENDPROC       _UART1_SEND_BYTE
  -------         PROC          _UART1_SEND_STRING
  D:002DH         SYMBOL        str
  C:052BH         LINE#         11
  C:0531H         LINE#         12
  C:0531H         LINE#         13
  C:053CH         LINE#         14
  C:053CH         LINE#         15
  C:054DH         LINE#         16
  C:054FH         LINE#         17
  -------         ENDPROC       _UART1_SEND_STRING
  -------         PROC          UARTINIT
  C:05BFH         LINE#         19
  C:05BFH         LINE#         20
  C:05BFH         LINE#         21
  C:05C2H         LINE#         22
  C:05C5H         LINE#         23
  C:05C8H         LINE#         24
  C:05CBH         LINE#         25
  C:05CEH         LINE#         26
  C:05D0H         LINE#         27
  C:05D2H         LINE#         29
  -------         ENDPROC       UARTINIT
  -------         ENDMOD        CONFIG

  -------         MODULE        ?C?CLDPTR
  C:000EH         PUBLIC        ?C?CLDPTR
  -------         ENDMOD        ?C?CLDPTR

  -------         MODULE        ?C?IMUL
  C:0027H         PUBLIC        ?C?IMUL
  -------         ENDMOD        ?C?IMUL

  -------         MODULE        ?C?SIDIV
  C:0039H         PUBLIC        ?C?SIDIV
  -------         ENDMOD        ?C?SIDIV

  -------         MODULE        ?C?LMUL
  C:006FH         PUBLIC        ?C?LMUL
  -------         ENDMOD        ?C?LMUL

  -------         MODULE        ?C?SLDIV
  C:045DH         PUBLIC        ?C?SLDIV
  -------         ENDMOD        ?C?SLDIV

  -------         MODULE        ?C?SLCMP
  C:00BEH         PUBLIC        ?C?SLCMP
  -------         ENDMOD        ?C?SLCMP

  -------         MODULE        ?C?UIDIV
  C:00D4H         PUBLIC        ?C?UIDIV
  -------         ENDMOD        ?C?UIDIV

  -------         MODULE        ?C?ULDIV
BL51 BANKED LINKER/LOCATER V6.22                                                      05/20/2015  17:32:42  PAGE 10


  C:0165H         PUBLIC        ?C?ULDIV
  -------         ENDMOD        ?C?ULDIV

*** WARNING L16: UNCALLED SEGMENT, IGNORED FOR OVERLAY PROCESS
    SEGMENT: ?PR?PWMINIT?MCU_PWM

*** WARNING L16: UNCALLED SEGMENT, IGNORED FOR OVERLAY PROCESS
    SEGMENT: ?PR?_ADDPWM?MCU_PWM

*** WARNING L16: UNCALLED SEGMENT, IGNORED FOR OVERLAY PROCESS
    SEGMENT: ?PR?_REDUCEPWM?MCU_PWM

*** WARNING L16: UNCALLED SEGMENT, IGNORED FOR OVERLAY PROCESS
    SEGMENT: ?PR?_SETPWM?MCU_PWM

Program Size: data=52.0 xdata=0 code=1563
LINK/LOCATE RUN COMPLETE.  4 WARNING(S),  0 ERROR(S)
