BL51 BANKED LINKER/LOCATER V6.22                                                        05/20/2015  13:43:58  PAGE 1


BL51 BANKED LINKER/LOCATER V6.22, INVOKED BY:
D:\KEIL\C51\BIN\BL51.EXE .\output\STARTUP.obj, .\output\mcu_test.obj, .\output\mcu_PWM.obj, .\output\config.obj TO .\out
>> put\mcu_test PRINT (.\mcu_test.m51) RAMSIZE (256)


MEMORY MODEL: SMALL


INPUT MODULES INCLUDED:
  .\output\STARTUP.obj (?C_STARTUP)
  .\output\mcu_test.obj (MCU_TEST)
  .\output\mcu_PWM.obj (MCU_PWM)
  .\output\config.obj (CONFIG)
  D:\KEIL\C51\LIB\C51S.LIB (?C_INIT)
  D:\KEIL\C51\LIB\C51S.LIB (?C?CLDPTR)
  D:\KEIL\C51\LIB\C51S.LIB (?C?IMUL)
  D:\KEIL\C51\LIB\C51S.LIB (?C?LMUL)
  D:\KEIL\C51\LIB\C51S.LIB (?C?SLDIV)
  D:\KEIL\C51\LIB\C51S.LIB (?C?ULDIV)


LINK MAP OF MODULE:  .\output\mcu_test (?C_STARTUP)


            TYPE    BASE      LENGTH    RELOCATION   SEGMENT NAME
            -----------------------------------------------------

            * * * * * * *   D A T A   M E M O R Y   * * * * * * *
            REG     0000H     0008H     ABSOLUTE     "REG BANK 0"
            DATA    0008H     0009H     UNIT         ?DT?MCU_TEST
            DATA    0011H     0006H     UNIT         _DATA_GROUP_
            IDATA   0017H     0001H     UNIT         ?STACK

            * * * * * * *   C O D E   M E M O R Y   * * * * * * *
            CODE    0000H     0003H     ABSOLUTE     
            CODE    0003H     0008H     UNIT         ?PR?_UART1_SEND_BYTE?CONFIG
            CODE    000BH     0003H     ABSOLUTE     
            CODE    000EH     0148H     UNIT         ?C?LIB_CODE
            CODE    0156H     008CH     UNIT         ?C_C51STARTUP
            CODE    01E2H     0084H     UNIT         ?PR?SHOW?MCU_TEST
            CODE    0266H     006AH     UNIT         ?PR?MEASURE_DISTANCE?MCU_TEST
            CODE    02D0H     0044H     UNIT         ?C?LDIV
            CODE    0314H     0043H     UNIT         ?PR?MAIN?MCU_TEST
            CODE    0357H     0027H     UNIT         ?PR?_ADDPWM?MCU_PWM
            CODE    037EH     0025H     UNIT         ?PR?_UART1_SEND_STRING?CONFIG
            CODE    03A3H     0023H     UNIT         ?PR?TIMER0?MCU_TEST
            CODE    03C6H     0020H     UNIT         ?PR?_DELAY_XMS?MCU_TEST
            CODE    03E6H     001DH     UNIT         ?PR?_REDUCEPWM?MCU_PWM
            CODE    0403H     001BH     UNIT         ?PR?_DELAYT?MCU_TEST
            CODE    041EH     0017H     UNIT         ?PR?PWMINIT?MCU_PWM
            CODE    0435H     0014H     UNIT         ?PR?UARTINIT?CONFIG
            CODE    0449H     0010H     UNIT         ?PR?INIT_PARAMETER?MCU_TEST
            CODE    0459H     000EH     UNIT         ?CO?MCU_TEST
            CODE    0467H     000CH     UNIT         ?PR?TRIG_SUPERSONIC?MCU_TEST
            CODE    0473H     000BH     UNIT         ?PR?INIT_MCU?MCU_TEST
            CODE    047EH     0007H     UNIT         ?C_INITSEG


BL51 BANKED LINKER/LOCATER V6.22                                                      05/20/2015  13:43:58  PAGE 2



OVERLAY MAP OF MODULE:   .\output\mcu_test (?C_STARTUP)


SEGMENT                                 DATA_GROUP 
  +--> CALLED SEGMENT                 START    LENGTH
-----------------------------------------------------
?C_C51STARTUP                         -----    -----
  +--> ?PR?MAIN?MCU_TEST
  +--> ?C_INITSEG

?PR?MAIN?MCU_TEST                     -----    -----
  +--> ?PR?INIT_MCU?MCU_TEST
  +--> ?PR?INIT_PARAMETER?MCU_TEST
  +--> ?PR?UARTINIT?CONFIG
  +--> ?PR?_DELAY_XMS?MCU_TEST
  +--> ?PR?TRIG_SUPERSONIC?MCU_TEST
  +--> ?PR?MEASURE_DISTANCE?MCU_TEST
  +--> ?PR?SHOW?MCU_TEST
  +--> ?CO?MCU_TEST
  +--> ?PR?_UART1_SEND_STRING?CONFIG
  +--> ?PR?_DELAYT?MCU_TEST

?PR?TRIG_SUPERSONIC?MCU_TEST          -----    -----
  +--> ?PR?_DELAYT?MCU_TEST

?PR?MEASURE_DISTANCE?MCU_TEST         -----    -----
  +--> ?PR?_DELAYT?MCU_TEST

?PR?SHOW?MCU_TEST                     0011H    0006H

?PR?_UART1_SEND_STRING?CONFIG         0011H    0003H
  +--> ?PR?_UART1_SEND_BYTE?CONFIG



SYMBOL TABLE OF MODULE:  .\output\mcu_test (?C_STARTUP)

  VALUE           TYPE          NAME
  ----------------------------------

  -------         MODULE        ?C_STARTUP
  C:0156H         SEGMENT       ?C_C51STARTUP
  I:0017H         SEGMENT       ?STACK
  C:0000H         PUBLIC        ?C_STARTUP
  D:00E0H         SYMBOL        ACC
  D:00F0H         SYMBOL        B
  D:0083H         SYMBOL        DPH
  D:0082H         SYMBOL        DPL
  N:0000H         SYMBOL        IBPSTACK
  N:0100H         SYMBOL        IBPSTACKTOP
  N:0080H         SYMBOL        IDATALEN
  C:0159H         SYMBOL        IDATALOOP
  N:0000H         SYMBOL        PBPSTACK
  N:0100H         SYMBOL        PBPSTACKTOP
  N:0000H         SYMBOL        PDATALEN
  N:0000H         SYMBOL        PDATASTART
BL51 BANKED LINKER/LOCATER V6.22                                                      05/20/2015  13:43:58  PAGE 3


  N:0000H         SYMBOL        PPAGE
  N:0000H         SYMBOL        PPAGEENABLE
  D:00A0H         SYMBOL        PPAGE_SFR
  D:0081H         SYMBOL        SP
  C:0156H         SYMBOL        STARTUP1
  N:0000H         SYMBOL        XBPSTACK
  N:0000H         SYMBOL        XBPSTACKTOP
  N:0000H         SYMBOL        XDATALEN
  N:0000H         SYMBOL        XDATASTART
  C:0000H         LINE#         126
  C:0156H         LINE#         133
  C:0158H         LINE#         134
  C:0159H         LINE#         135
  C:015AH         LINE#         136
  C:015CH         LINE#         185
  C:015FH         LINE#         196
  -------         ENDMOD        ?C_STARTUP

  -------         MODULE        MCU_TEST
  C:0000H         SYMBOL        _ICE_DUMMY_
  D:00A0H         PUBLIC        P2
  B:00A8H.7       PUBLIC        EA
  C:0403H         PUBLIC        _delayt
  C:0467H         PUBLIC        Trig_SuperSonic
  C:03C6H         PUBLIC        _Delay_xMs
  D:00A8H         PUBLIC        IE
  B:00A0H.6       PUBLIC        INPUT
  D:00B8H         PUBLIC        IP
  C:0449H         PUBLIC        Init_Parameter
  D:00D8H         PUBLIC        CCON
  C:0314H         PUBLIC        main
  D:0008H         PUBLIC        count
  D:0098H         PUBLIC        SCON
  D:0088H         PUBLIC        TCON
  C:01E2H         PUBLIC        show
  B:00A8H.1       PUBLIC        ET0
  B:0088H.5       PUBLIC        TF0
  D:008CH         PUBLIC        TH0
  D:0009H         PUBLIC        distance
  D:008AH         PUBLIC        TL0
  C:03A3H         PUBLIC        timer0
  B:0088H.4       PUBLIC        TR0
  C:0473H         PUBLIC        Init_MCU
  D:000DH         PUBLIC        a
  C:0266H         PUBLIC        Measure_Distance
  B:00A0H.7       PUBLIC        OUTPUT
  D:00D0H         PUBLIC        PSW
  -------         PROC          SHOW
  -------         DO            
  D:0011H         SYMBOL        ge
  D:0013H         SYMBOL        shi
  D:0015H         SYMBOL        bai
  -------         ENDDO         
  C:01E2H         LINE#         26
  C:01E2H         LINE#         27
  C:01E2H         LINE#         29
  C:01FBH         LINE#         30
BL51 BANKED LINKER/LOCATER V6.22                                                      05/20/2015  13:43:58  PAGE 4


  C:021DH         LINE#         31
  C:023FH         LINE#         32
  C:0256H         LINE#         33
  C:025CH         LINE#         34
  C:0262H         LINE#         35
  C:0265H         LINE#         36
  -------         ENDPROC       SHOW
  -------         PROC          _DELAY_XMS
  D:0006H         SYMBOL        x
  -------         DO            
  D:0004H         SYMBOL        i
  D:0002H         SYMBOL        j
  -------         ENDDO         
  C:03C6H         LINE#         44
  C:03C6H         LINE#         45
  C:03C6H         LINE#         47
  C:03D0H         LINE#         48
  C:03D0H         LINE#         49
  C:03D3H         LINE#         50
  C:03D3H         LINE#         52
  C:03DEH         LINE#         53
  C:03E5H         LINE#         54
  -------         ENDPROC       _DELAY_XMS
  -------         PROC          _DELAYT
  D:0006H         SYMBOL        x
  -------         DO            
  D:0005H         SYMBOL        j
  -------         ENDDO         
  C:0403H         LINE#         62
  C:0403H         LINE#         63
  C:0403H         LINE#         65
  C:0412H         LINE#         66
  C:0412H         LINE#         67
  C:041AH         LINE#         68
  C:041AH         LINE#         70
  C:041DH         LINE#         71
  C:041DH         LINE#         72
  -------         ENDPROC       _DELAYT
  -------         PROC          INIT_MCU
  C:0473H         LINE#         80
  C:0473H         LINE#         81
  C:0473H         LINE#         85
  C:0476H         LINE#         86
  C:0479H         LINE#         87
  C:047BH         LINE#         88
  C:047DH         LINE#         89
  -------         ENDPROC       INIT_MCU
  -------         PROC          INIT_PARAMETER
  C:0449H         LINE#         98
  C:0449H         LINE#         99
  C:0449H         LINE#         100
  C:044BH         LINE#         101
  C:044DH         LINE#         102
  C:0450H         LINE#         103
  C:0458H         LINE#         104
  -------         ENDPROC       INIT_PARAMETER
  -------         PROC          TRIG_SUPERSONIC
BL51 BANKED LINKER/LOCATER V6.22                                                      05/20/2015  13:43:58  PAGE 5


  C:0467H         LINE#         113
  C:0467H         LINE#         114
  C:0467H         LINE#         115
  C:0469H         LINE#         116
  C:0470H         LINE#         117
  C:0472H         LINE#         118
  -------         ENDPROC       TRIG_SUPERSONIC
  -------         PROC          MEASURE_DISTANCE
  -------         DO            
  D:0005H         SYMBOL        l
  D:0006H         SYMBOL        h
  D:0002H         SYMBOL        y
  -------         ENDDO         
  C:0266H         LINE#         127
  C:0266H         LINE#         128
  C:0266H         LINE#         131
  C:0268H         LINE#         132
  C:026BH         LINE#         133
  C:026BH         LINE#         135
  C:026BH         LINE#         136
  C:026DH         LINE#         137
  C:026FH         LINE#         138
  C:0271H         LINE#         139
  C:027DH         LINE#         140
  C:0285H         LINE#         141
  C:029FH         LINE#         142
  C:02A2H         LINE#         143
  C:02A5H         LINE#         144
  C:02ABH         LINE#         145
  C:02CFH         LINE#         146
  -------         ENDPROC       MEASURE_DISTANCE
  -------         PROC          MAIN
  C:0314H         LINE#         155
  C:0314H         LINE#         156
  C:0314H         LINE#         157
  C:0317H         LINE#         158
  C:031AH         LINE#         159
  C:031DH         LINE#         160
  C:0324H         LINE#         161
  C:0324H         LINE#         162
  C:0324H         LINE#         163
  C:0327H         LINE#         164
  C:032AH         LINE#         165
  C:032AH         LINE#         167
  C:032AH         LINE#         168
  C:032DH         LINE#         169
  C:0330H         LINE#         170
  C:0339H         LINE#         171
  C:0342H         LINE#         172
  C:034BH         LINE#         173
  C:034EH         LINE#         174
  C:0355H         LINE#         175
  -------         ENDPROC       MAIN
  -------         PROC          TIMER0
  C:03A3H         LINE#         185
  C:03A7H         LINE#         187
  C:03A9H         LINE#         188
BL51 BANKED LINKER/LOCATER V6.22                                                      05/20/2015  13:43:58  PAGE 6


  C:03ACH         LINE#         189
  C:03AFH         LINE#         190
  C:03B1H         LINE#         191
  C:03B6H         LINE#         192
  C:03B6H         LINE#         193
  C:03B8H         LINE#         194
  C:03BBH         LINE#         195
  C:03BEH         LINE#         196
  C:03C1H         LINE#         197
  C:03C1H         LINE#         198
  -------         ENDPROC       TIMER0
  -------         ENDMOD        MCU_TEST

  -------         MODULE        MCU_PWM
  C:0000H         SYMBOL        _ICE_DUMMY_
  D:0090H         PUBLIC        P1
  D:00F9H         PUBLIC        CH
  C:041EH         PUBLIC        PWMInit
  D:00A8H         PUBLIC        IE
  D:00E9H         PUBLIC        CL
  D:00FAH         PUBLIC        CCAP0H
  D:00EAH         PUBLIC        CCAP0L
  B:00D8H.6       PUBLIC        CR
  D:00DAH         PUBLIC        CCAPM0
  D:00B8H         PUBLIC        IP
  C:0357H         PUBLIC        _addPWM
  D:00D9H         PUBLIC        CMOD
  D:00D8H         PUBLIC        CCON
  D:0098H         PUBLIC        SCON
  D:0088H         PUBLIC        TCON
  D:00F2H         PUBLIC        PCA_PWM0
  C:03E6H         PUBLIC        _reducePWM
  D:00D0H         PUBLIC        PSW
  -------         PROC          PWMINIT
  C:041EH         LINE#         7
  C:041EH         LINE#         8
  C:041EH         LINE#         9
  C:0421H         LINE#         10
  C:0423H         LINE#         11
  C:0425H         LINE#         12
  C:0427H         LINE#         13
  C:0429H         LINE#         14
  C:042CH         LINE#         17
  C:042FH         LINE#         18
  C:0432H         LINE#         21
  C:0434H         LINE#         23
  -------         ENDPROC       PWMINIT
  -------         PROC          _ADDPWM
  D:0007H         SYMBOL        dat
  C:0357H         LINE#         24
  C:0357H         LINE#         25
  C:0357H         LINE#         26
  C:036CH         LINE#         27
  C:036CH         LINE#         28
  C:036FH         LINE#         29
  C:0372H         LINE#         30
  C:0373H         LINE#         32
BL51 BANKED LINKER/LOCATER V6.22                                                      05/20/2015  13:43:58  PAGE 7


  C:0373H         LINE#         33
  C:0378H         LINE#         34
  C:037DH         LINE#         35
  C:037DH         LINE#         36
  -------         ENDPROC       _ADDPWM
  -------         PROC          _REDUCEPWM
  D:0007H         SYMBOL        dat
  C:03E6H         LINE#         37
  C:03E6H         LINE#         38
  C:03E6H         LINE#         39
  C:03EFH         LINE#         40
  C:03EFH         LINE#         41
  C:03F2H         LINE#         42
  C:03F5H         LINE#         43
  C:03F6H         LINE#         45
  C:03F6H         LINE#         46
  C:03FCH         LINE#         47
  C:0402H         LINE#         48
  C:0402H         LINE#         49
  -------         ENDPROC       _REDUCEPWM
  -------         ENDMOD        MCU_PWM

  -------         MODULE        CONFIG
  C:0000H         SYMBOL        _ICE_DUMMY_
  B:00A8H.7       PUBLIC        EA
  D:00A8H         PUBLIC        IE
  D:00B8H         PUBLIC        IP
  B:0098H.1       PUBLIC        TI
  D:00D8H         PUBLIC        CCON
  D:0099H         PUBLIC        SBUF
  D:0087H         PUBLIC        PCON
  D:0098H         PUBLIC        SCON
  C:0435H         PUBLIC        UartInit
  D:0089H         PUBLIC        TMOD
  D:0088H         PUBLIC        TCON
  C:037EH         PUBLIC        _UART1_Send_String
  D:008DH         PUBLIC        TH1
  D:008BH         PUBLIC        TL1
  C:0003H         PUBLIC        _UART1_Send_Byte
  B:0088H.6       PUBLIC        TR1
  D:00D0H         PUBLIC        PSW
  -------         PROC          _UART1_SEND_BYTE
  D:0007H         SYMBOL        ddata
  C:0003H         LINE#         4
  C:0003H         LINE#         5
  C:0003H         LINE#         6
  C:0005H         LINE#         7
  C:0008H         LINE#         8
  C:000AH         LINE#         9
  -------         ENDPROC       _UART1_SEND_BYTE
  -------         PROC          _UART1_SEND_STRING
  D:0011H         SYMBOL        str
  C:037EH         LINE#         11
  C:0384H         LINE#         12
  C:0384H         LINE#         13
  C:038FH         LINE#         14
  C:038FH         LINE#         15
BL51 BANKED LINKER/LOCATER V6.22                                                      05/20/2015  13:43:58  PAGE 8


  C:03A0H         LINE#         16
  C:03A2H         LINE#         17
  -------         ENDPROC       _UART1_SEND_STRING
  -------         PROC          UARTINIT
  C:0435H         LINE#         19
  C:0435H         LINE#         20
  C:0435H         LINE#         21
  C:0438H         LINE#         22
  C:043BH         LINE#         23
  C:043EH         LINE#         24
  C:0441H         LINE#         25
  C:0444H         LINE#         26
  C:0446H         LINE#         27
  C:0448H         LINE#         29
  -------         ENDPROC       UARTINIT
  -------         ENDMOD        CONFIG

  -------         MODULE        ?C?CLDPTR
  C:000EH         PUBLIC        ?C?CLDPTR
  -------         ENDMOD        ?C?CLDPTR

  -------         MODULE        ?C?IMUL
  C:0027H         PUBLIC        ?C?IMUL
  -------         ENDMOD        ?C?IMUL

  -------         MODULE        ?C?LMUL
  C:0039H         PUBLIC        ?C?LMUL
  -------         ENDMOD        ?C?LMUL

  -------         MODULE        ?C?SLDIV
  C:02D0H         PUBLIC        ?C?SLDIV
  -------         ENDMOD        ?C?SLDIV

  -------         MODULE        ?C?ULDIV
  C:00C4H         PUBLIC        ?C?ULDIV
  -------         ENDMOD        ?C?ULDIV

*** WARNING L16: UNCALLED SEGMENT, IGNORED FOR OVERLAY PROCESS
    SEGMENT: ?PR?PWMINIT?MCU_PWM

*** WARNING L16: UNCALLED SEGMENT, IGNORED FOR OVERLAY PROCESS
    SEGMENT: ?PR?_ADDPWM?MCU_PWM

*** WARNING L16: UNCALLED SEGMENT, IGNORED FOR OVERLAY PROCESS
    SEGMENT: ?PR?_REDUCEPWM?MCU_PWM

Program Size: data=24.0 xdata=0 code=1157
LINK/LOCATE RUN COMPLETE.  3 WARNING(S),  0 ERROR(S)
