BL51 BANKED LINKER/LOCATER V6.22                                                        07/24/2015  19:20:45  PAGE 1


BL51 BANKED LINKER/LOCATER V6.22, INVOKED BY:
D:\KEIL\C51\BIN\BL51.EXE .\output\STARTUP.obj, .\output\mcu_test.obj, .\output\mcu_PWM.obj, .\output\config.obj TO .\out
>> put\mcu_test PRINT (.\mcu_test.m51) RAMSIZE (256)


MEMORY MODEL: SMALL


INPUT MODULES INCLUDED:
  .\output\STARTUP.obj (?C_STARTUP)
  .\output\mcu_test.obj (MCU_TEST)
  .\output\mcu_PWM.obj (MCU_PWM)
  .\output\config.obj (CONFIG)
  D:\KEIL\C51\LIB\C51S.LIB (?C_INIT)
  D:\KEIL\C51\LIB\C51S.LIB (?C?CLDPTR)
  D:\KEIL\C51\LIB\C51S.LIB (?C?IMUL)
  D:\KEIL\C51\LIB\C51S.LIB (?C?LMUL)
  D:\KEIL\C51\LIB\C51S.LIB (?C?SLDIV)
  D:\KEIL\C51\LIB\C51S.LIB (PRINTF)
  D:\KEIL\C51\LIB\C51S.LIB (?C?CLDOPTR)
  D:\KEIL\C51\LIB\C51S.LIB (?C?CSTPTR)
  D:\KEIL\C51\LIB\C51S.LIB (?C?ULDIV)
  D:\KEIL\C51\LIB\C51S.LIB (?C?PLDIIDATA)
  D:\KEIL\C51\LIB\C51S.LIB (?C?CCASE)
  D:\KEIL\C51\LIB\C51S.LIB (PUTCHAR)


LINK MAP OF MODULE:  .\output\mcu_test (?C_STARTUP)


            TYPE    BASE      LENGTH    RELOCATION   SEGMENT NAME
            -----------------------------------------------------

            * * * * * * *   D A T A   M E M O R Y   * * * * * * *
            REG     0000H     0008H     ABSOLUTE     "REG BANK 0"
            DATA    0008H     0006H     UNIT         ?DT?SHOW?MCU_TEST
                    000EH     0012H                  *** GAP ***
            BIT     0020H.0   0001H.1   UNIT         _BIT_GROUP_
                    0021H.1   0000H.7                *** GAP ***
            DATA    0022H     0023H     UNIT         ?DT?MCU_TEST
            DATA    0045H     0022H     UNIT         _DATA_GROUP_
            IDATA   0067H     0001H     UNIT         ?STACK

            * * * * * * *   C O D E   M E M O R Y   * * * * * * *
            CODE    0000H     0003H     ABSOLUTE     
            CODE    0003H     0008H     UNIT         ?PR?_UART1_SEND_BYTE?CONFIG
            CODE    000BH     0003H     ABSOLUTE     
            CODE    000EH     000CH     UNIT         ?PR?TRIG_SUPERSONIC?MCU_TEST
                    001AH     0001H                  *** GAP ***
            CODE    001BH     0003H     ABSOLUTE     
            CODE    001EH     035CH     UNIT         ?PR?PRINTF?PRINTF
            CODE    037AH     01BDH     UNIT         ?C?LIB_CODE
            CODE    0537H     008CH     UNIT         ?C_C51STARTUP
            CODE    05C3H     0084H     UNIT         ?PR?SHOW?MCU_TEST
            CODE    0647H     006AH     UNIT         ?PR?MEASURE_DISTANCE?MCU_TEST
            CODE    06B1H     0059H     UNIT         ?PR?MAIN?MCU_TEST
            CODE    070AH     0044H     UNIT         ?C?LDIV
            CODE    074EH     0037H     UNIT         ?PR?TIMER0?MCU_TEST
BL51 BANKED LINKER/LOCATER V6.22                                                      07/24/2015  19:20:45  PAGE 2


            CODE    0785H     0029H     UNIT         ?PR?_SETPWM?MCU_PWM
            CODE    07AEH     0027H     UNIT         ?PR?_ADDPWM?MCU_PWM
            CODE    07D5H     0027H     UNIT         ?PR?PUTCHAR?PUTCHAR
            CODE    07FCH     0025H     UNIT         ?PR?_UART1_SEND_STRING?CONFIG
            CODE    0821H     0020H     UNIT         ?PR?_DELAY_XMS?MCU_TEST
            CODE    0841H     001DH     UNIT         ?PR?_REDUCEPWM?MCU_PWM
            CODE    085EH     001BH     UNIT         ?PR?_DELAYT?MCU_TEST
            CODE    0879H     0017H     UNIT         ?PR?PWMINIT?MCU_PWM
            CODE    0890H     0016H     UNIT         ?C_INITSEG
            CODE    08A6H     0014H     UNIT         ?PR?UARTINIT?CONFIG
            CODE    08BAH     0012H     UNIT         ?PR?INIT_PARAMETER?MCU_TEST
            CODE    08CCH     0011H     UNIT         ?PR?TIMER1?MCU_TEST
            CODE    08DDH     000BH     UNIT         ?PR?INIT_MCU?MCU_TEST
            CODE    08E8H     0009H     UNIT         ?CO?MCU_TEST



OVERLAY MAP OF MODULE:   .\output\mcu_test (?C_STARTUP)


SEGMENT                                  BIT_GROUP          DATA_GROUP 
  +--> CALLED SEGMENT                 START    LENGTH     START    LENGTH
-------------------------------------------------------------------------
?C_C51STARTUP                         -----    -----      -----    -----
  +--> ?PR?MAIN?MCU_TEST
  +--> ?C_INITSEG

?PR?MAIN?MCU_TEST                     -----    -----      0045H    000EH
  +--> ?PR?INIT_MCU?MCU_TEST
  +--> ?PR?UARTINIT?CONFIG
  +--> ?PR?PWMINIT?MCU_PWM
  +--> ?PR?_DELAY_XMS?MCU_TEST
  +--> ?CO?MCU_TEST
  +--> ?PR?_UART1_SEND_STRING?CONFIG
  +--> ?PR?PRINTF?PRINTF

?PR?_UART1_SEND_STRING?CONFIG         -----    -----      0053H    0003H
  +--> ?PR?_UART1_SEND_BYTE?CONFIG

?PR?PRINTF?PRINTF                     0020H.0  0001H.1    0053H    0014H
  +--> ?PR?PUTCHAR?PUTCHAR



SYMBOL TABLE OF MODULE:  .\output\mcu_test (?C_STARTUP)

  VALUE           TYPE          NAME
  ----------------------------------

  -------         MODULE        ?C_STARTUP
  C:0537H         SEGMENT       ?C_C51STARTUP
  I:0067H         SEGMENT       ?STACK
  C:0000H         PUBLIC        ?C_STARTUP
  D:00E0H         SYMBOL        ACC
  D:00F0H         SYMBOL        B
  D:0083H         SYMBOL        DPH
  D:0082H         SYMBOL        DPL
BL51 BANKED LINKER/LOCATER V6.22                                                      07/24/2015  19:20:45  PAGE 3


  N:0000H         SYMBOL        IBPSTACK
  N:0100H         SYMBOL        IBPSTACKTOP
  N:0080H         SYMBOL        IDATALEN
  C:053AH         SYMBOL        IDATALOOP
  N:0000H         SYMBOL        PBPSTACK
  N:0100H         SYMBOL        PBPSTACKTOP
  N:0000H         SYMBOL        PDATALEN
  N:0000H         SYMBOL        PDATASTART
  N:0000H         SYMBOL        PPAGE
  N:0000H         SYMBOL        PPAGEENABLE
  D:00A0H         SYMBOL        PPAGE_SFR
  D:0081H         SYMBOL        SP
  C:0537H         SYMBOL        STARTUP1
  N:0000H         SYMBOL        XBPSTACK
  N:0000H         SYMBOL        XBPSTACKTOP
  N:0000H         SYMBOL        XDATALEN
  N:0000H         SYMBOL        XDATASTART
  C:0000H         LINE#         126
  C:0537H         LINE#         133
  C:0539H         LINE#         134
  C:053AH         LINE#         135
  C:053BH         LINE#         136
  C:053DH         LINE#         185
  C:0540H         LINE#         196
  -------         ENDMOD        ?C_STARTUP

  -------         MODULE        MCU_TEST
  C:0000H         SYMBOL        _ICE_DUMMY_
  D:0090H         PUBLIC        P1
  D:00A0H         PUBLIC        P2
  D:00C0H         PUBLIC        P4
  B:00A8H.7       PUBLIC        EA
  C:085EH         PUBLIC        _delayt
  C:000EH         PUBLIC        Trig_SuperSonic
  C:0821H         PUBLIC        _Delay_xMs
  D:00A8H         PUBLIC        IE
  D:00FAH         PUBLIC        CCAP0H
  B:00A0H.6       PUBLIC        INPUT
  D:00EAH         PUBLIC        CCAP0L
  D:00B8H         PUBLIC        IP
  C:08BAH         PUBLIC        Init_Parameter
  D:00D8H         PUBLIC        CCON
  C:06B1H         PUBLIC        main
  D:0022H         PUBLIC        count
  D:00BBH         PUBLIC        P4SW
  D:0098H         PUBLIC        SCON
  D:0088H         PUBLIC        TCON
  B:00C0H.4       PUBLIC        led
  D:0024H         PUBLIC        DPWM
  C:05C3H         PUBLIC        show
  D:0026H         PUBLIC        DArray
  D:003AH         PUBLIC        TPWM
  B:00A8H.1       PUBLIC        ET0
  B:0088H.5       PUBLIC        TF0
  B:0088H.7       PUBLIC        TF1
  D:008CH         PUBLIC        TH0
  D:003BH         PUBLIC        distance
BL51 BANKED LINKER/LOCATER V6.22                                                      07/24/2015  19:20:45  PAGE 4


  D:008AH         PUBLIC        TL0
  C:074EH         PUBLIC        timer0
  C:08CCH         PUBLIC        timer1
  B:0088H.4       PUBLIC        TR0
  C:08DDH         PUBLIC        Init_MCU
  D:003FH         PUBLIC        Dflag
  D:0041H         PUBLIC        a
  C:0647H         PUBLIC        Measure_Distance
  B:00A0H.7       PUBLIC        OUTPUT
  D:00D0H         PUBLIC        PSW
  -------         PROC          SHOW
  -------         DO            
  D:0008H         SYMBOL        ge
  D:000AH         SYMBOL        shi
  D:000CH         SYMBOL        bai
  -------         ENDDO         
  C:05C3H         LINE#         30
  C:05C3H         LINE#         31
  C:05C3H         LINE#         33
  C:05DCH         LINE#         34
  C:05FEH         LINE#         35
  C:0620H         LINE#         36
  C:0637H         LINE#         37
  C:063DH         LINE#         38
  C:0643H         LINE#         39
  C:0646H         LINE#         40
  -------         ENDPROC       SHOW
  -------         PROC          _DELAY_XMS
  D:0006H         SYMBOL        x
  -------         DO            
  D:0004H         SYMBOL        i
  D:0002H         SYMBOL        j
  -------         ENDDO         
  C:0821H         LINE#         48
  C:0821H         LINE#         49
  C:0821H         LINE#         51
  C:082BH         LINE#         52
  C:082BH         LINE#         53
  C:082EH         LINE#         54
  C:082EH         LINE#         56
  C:0839H         LINE#         57
  C:0840H         LINE#         58
  -------         ENDPROC       _DELAY_XMS
  -------         PROC          _DELAYT
  D:0006H         SYMBOL        x
  -------         DO            
  D:0005H         SYMBOL        j
  -------         ENDDO         
  C:085EH         LINE#         66
  C:085EH         LINE#         67
  C:085EH         LINE#         69
  C:086DH         LINE#         70
  C:086DH         LINE#         71
  C:0875H         LINE#         72
  C:0875H         LINE#         74
  C:0878H         LINE#         75
  C:0878H         LINE#         76
BL51 BANKED LINKER/LOCATER V6.22                                                      07/24/2015  19:20:45  PAGE 5


  -------         ENDPROC       _DELAYT
  -------         PROC          INIT_MCU
  C:08DDH         LINE#         84
  C:08DDH         LINE#         85
  C:08DDH         LINE#         88
  C:08E0H         LINE#         89
  C:08E3H         LINE#         90
  C:08E5H         LINE#         91
  C:08E7H         LINE#         92
  -------         ENDPROC       INIT_MCU
  -------         PROC          INIT_PARAMETER
  C:08BAH         LINE#         101
  C:08BAH         LINE#         102
  C:08BAH         LINE#         103
  C:08BCH         LINE#         104
  C:08BEH         LINE#         105
  C:08C3H         LINE#         106
  C:08CBH         LINE#         107
  -------         ENDPROC       INIT_PARAMETER
  -------         PROC          TRIG_SUPERSONIC
  C:000EH         LINE#         116
  C:000EH         LINE#         117
  C:000EH         LINE#         118
  C:0010H         LINE#         119
  C:0017H         LINE#         120
  C:0019H         LINE#         121
  -------         ENDPROC       TRIG_SUPERSONIC
  -------         PROC          MEASURE_DISTANCE
  -------         DO            
  D:0005H         SYMBOL        l
  D:0006H         SYMBOL        h
  D:0002H         SYMBOL        y
  -------         ENDDO         
  C:0647H         LINE#         130
  C:0647H         LINE#         131
  C:0647H         LINE#         134
  C:0649H         LINE#         135
  C:064CH         LINE#         136
  C:064CH         LINE#         138
  C:064CH         LINE#         139
  C:064EH         LINE#         140
  C:0650H         LINE#         141
  C:0652H         LINE#         142
  C:065EH         LINE#         143
  C:0666H         LINE#         144
  C:0680H         LINE#         145
  C:0683H         LINE#         146
  C:0686H         LINE#         147
  C:068CH         LINE#         148
  C:06B0H         LINE#         149
  -------         ENDPROC       MEASURE_DISTANCE
  -------         PROC          MAIN
  -------         DO            
  D:0045H         SYMBOL        Dtemp
  D:0047H         SYMBOL        i
  D:0049H         SYMBOL        buff
  -------         ENDDO         
BL51 BANKED LINKER/LOCATER V6.22                                                      07/24/2015  19:20:45  PAGE 6


  C:06B1H         LINE#         158
  C:06B1H         LINE#         159
  C:06B1H         LINE#         160
  C:06B6H         LINE#         162
  C:06B9H         LINE#         163
  C:06BCH         LINE#         164
  C:06BFH         LINE#         165
  C:06C6H         LINE#         166
  C:06C9H         LINE#         167
  C:06CCH         LINE#         168
  C:06CEH         LINE#         169
  C:06D7H         LINE#         170
  C:06D7H         LINE#         171
  C:06D7H         LINE#         172
  C:06DEH         LINE#         173
  C:06DEH         LINE#         174
  C:06E1H         LINE#         175
  C:06E1H         LINE#         176
  C:06E8H         LINE#         177
  C:06E8H         LINE#         178
  C:06EBH         LINE#         179
  C:06FFH         LINE#         180
  C:0708H         LINE#         181
  C:0708H         LINE#         183
  -------         ENDPROC       MAIN
  -------         PROC          TIMER0
  C:074EH         LINE#         193
  C:0752H         LINE#         195
  C:0754H         LINE#         196
  C:0757H         LINE#         197
  C:075AH         LINE#         198
  C:0762H         LINE#         199
  C:0764H         LINE#         200
  C:076CH         LINE#         201
  C:076CH         LINE#         202
  C:076EH         LINE#         203
  C:0774H         LINE#         204
  C:077AH         LINE#         205
  C:0780H         LINE#         206
  C:0780H         LINE#         207
  -------         ENDPROC       TIMER0
  -------         PROC          TIMER1
  C:08CCH         LINE#         217
  C:08CEH         LINE#         219
  C:08D0H         LINE#         220
  C:08D8H         LINE#         221
  C:08DAH         LINE#         222
  C:08DAH         LINE#         223
  C:08DAH         LINE#         224
  C:08DAH         LINE#         225
  -------         ENDPROC       TIMER1
  -------         ENDMOD        MCU_TEST

  -------         MODULE        MCU_PWM
  C:0000H         SYMBOL        _ICE_DUMMY_
  D:0090H         PUBLIC        P1
  D:00F9H         PUBLIC        CH
BL51 BANKED LINKER/LOCATER V6.22                                                      07/24/2015  19:20:45  PAGE 7


  C:0879H         PUBLIC        PWMInit
  D:00A8H         PUBLIC        IE
  D:00E9H         PUBLIC        CL
  D:00FAH         PUBLIC        CCAP0H
  D:00EAH         PUBLIC        CCAP0L
  B:00D8H.6       PUBLIC        CR
  D:00DAH         PUBLIC        CCAPM0
  D:00B8H         PUBLIC        IP
  C:07AEH         PUBLIC        _addPWM
  D:00D9H         PUBLIC        CMOD
  D:00D8H         PUBLIC        CCON
  D:0098H         PUBLIC        SCON
  D:0088H         PUBLIC        TCON
  C:0785H         PUBLIC        _setPWM
  D:00F2H         PUBLIC        PCA_PWM0
  C:0841H         PUBLIC        _reducePWM
  D:00D0H         PUBLIC        PSW
  -------         PROC          PWMINIT
  C:0879H         LINE#         7
  C:0879H         LINE#         8
  C:0879H         LINE#         9
  C:087CH         LINE#         10
  C:087EH         LINE#         11
  C:0880H         LINE#         12
  C:0882H         LINE#         13
  C:0884H         LINE#         14
  C:0887H         LINE#         15
  C:088AH         LINE#         16
  C:088DH         LINE#         17
  C:088FH         LINE#         19
  -------         ENDPROC       PWMINIT
  -------         PROC          _ADDPWM
  D:0007H         SYMBOL        dat
  C:07AEH         LINE#         20
  C:07AEH         LINE#         21
  C:07AEH         LINE#         22
  C:07C3H         LINE#         23
  C:07C3H         LINE#         24
  C:07C6H         LINE#         25
  C:07C9H         LINE#         26
  C:07CAH         LINE#         28
  C:07CAH         LINE#         29
  C:07CFH         LINE#         30
  C:07D4H         LINE#         31
  C:07D4H         LINE#         32
  -------         ENDPROC       _ADDPWM
  -------         PROC          _REDUCEPWM
  D:0007H         SYMBOL        dat
  C:0841H         LINE#         33
  C:0841H         LINE#         34
  C:0841H         LINE#         35
  C:084AH         LINE#         36
  C:084AH         LINE#         37
  C:084DH         LINE#         38
  C:0850H         LINE#         39
  C:0851H         LINE#         41
  C:0851H         LINE#         42
BL51 BANKED LINKER/LOCATER V6.22                                                      07/24/2015  19:20:45  PAGE 8


  C:0857H         LINE#         43
  C:085DH         LINE#         44
  C:085DH         LINE#         45
  -------         ENDPROC       _REDUCEPWM
  -------         PROC          _SETPWM
  D:0007H         SYMBOL        dat
  C:0785H         LINE#         46
  C:0785H         LINE#         47
  C:0785H         LINE#         48
  C:0794H         LINE#         49
  C:0794H         LINE#         50
  C:0794H         LINE#         51
  C:0797H         LINE#         52
  C:0797H         LINE#         53
  C:0799H         LINE#         54
  C:0799H         LINE#         55
  C:079CH         LINE#         56
  C:079FH         LINE#         57
  C:07A0H         LINE#         58
  C:07A0H         LINE#         59
  C:07A3H         LINE#         60
  C:07A6H         LINE#         61
  C:07A7H         LINE#         62
  C:07A7H         LINE#         63
  C:07AAH         LINE#         64
  C:07ADH         LINE#         65
  C:07ADH         LINE#         66
  C:07ADH         LINE#         68
  -------         ENDPROC       _SETPWM
  -------         ENDMOD        MCU_PWM

  -------         MODULE        CONFIG
  C:0000H         SYMBOL        _ICE_DUMMY_
  B:00A8H.7       PUBLIC        EA
  D:00A8H         PUBLIC        IE
  D:00B8H         PUBLIC        IP
  B:0098H.1       PUBLIC        TI
  D:00D8H         PUBLIC        CCON
  D:0099H         PUBLIC        SBUF
  D:0087H         PUBLIC        PCON
  D:0098H         PUBLIC        SCON
  C:08A6H         PUBLIC        UartInit
  D:0089H         PUBLIC        TMOD
  D:0088H         PUBLIC        TCON
  C:07FCH         PUBLIC        _UART1_Send_String
  D:008DH         PUBLIC        TH1
  D:008BH         PUBLIC        TL1
  C:0003H         PUBLIC        _UART1_Send_Byte
  B:0088H.6       PUBLIC        TR1
  D:00D0H         PUBLIC        PSW
  -------         PROC          _UART1_SEND_BYTE
  D:0007H         SYMBOL        ddata
  C:0003H         LINE#         4
  C:0003H         LINE#         5
  C:0003H         LINE#         6
  C:0005H         LINE#         7
  C:0008H         LINE#         8
BL51 BANKED LINKER/LOCATER V6.22                                                      07/24/2015  19:20:45  PAGE 9


  C:000AH         LINE#         9
  -------         ENDPROC       _UART1_SEND_BYTE
  -------         PROC          _UART1_SEND_STRING
  D:0053H         SYMBOL        str
  C:07FCH         LINE#         11
  C:0802H         LINE#         12
  C:0802H         LINE#         13
  C:080DH         LINE#         14
  C:080DH         LINE#         15
  C:081EH         LINE#         16
  C:0820H         LINE#         17
  -------         ENDPROC       _UART1_SEND_STRING
  -------         PROC          UARTINIT
  C:08A6H         LINE#         19
  C:08A6H         LINE#         20
  C:08A6H         LINE#         21
  C:08A9H         LINE#         22
  C:08ACH         LINE#         23
  C:08AFH         LINE#         24
  C:08B2H         LINE#         25
  C:08B5H         LINE#         26
  C:08B7H         LINE#         27
  C:08B9H         LINE#         30
  -------         ENDPROC       UARTINIT
  -------         ENDMOD        CONFIG

  -------         MODULE        ?C?CLDPTR
  C:037AH         PUBLIC        ?C?CLDPTR
  -------         ENDMOD        ?C?CLDPTR

  -------         MODULE        ?C?IMUL
  C:0393H         PUBLIC        ?C?IMUL
  -------         ENDMOD        ?C?IMUL

  -------         MODULE        ?C?LMUL
  C:03A5H         PUBLIC        ?C?LMUL
  -------         ENDMOD        ?C?LMUL

  -------         MODULE        ?C?SLDIV
  C:070AH         PUBLIC        ?C?SLDIV
  -------         ENDMOD        ?C?SLDIV

  -------         MODULE        PRINTF
  D:0053H         PUBLIC        ?_PRINTF517?BYTE
  D:0053H         PUBLIC        ?_PRINTF?BYTE
  D:0053H         PUBLIC        ?_SPRINTF517?BYTE
  D:0053H         PUBLIC        ?_SPRINTF?BYTE
  C:0080H         PUBLIC        _PRINTF
  C:0080H         PUBLIC        _PRINTF517
  C:007AH         PUBLIC        _SPRINTF
  C:007AH         PUBLIC        _SPRINTF517
  -------         ENDMOD        PRINTF

  -------         MODULE        ?C?CLDOPTR
  C:03F4H         PUBLIC        ?C?CLDOPTR
  -------         ENDMOD        ?C?CLDOPTR

BL51 BANKED LINKER/LOCATER V6.22                                                      07/24/2015  19:20:45  PAGE 10


  -------         MODULE        ?C?CSTPTR
  C:0421H         PUBLIC        ?C?CSTPTR
  -------         ENDMOD        ?C?CSTPTR

  -------         MODULE        ?C?ULDIV
  C:046FH         PUBLIC        ?C?ULDIV
  -------         ENDMOD        ?C?ULDIV

  -------         MODULE        ?C?PLDIIDATA
  C:0501H         PUBLIC        ?C?PLDIIDATA
  -------         ENDMOD        ?C?PLDIIDATA

  -------         MODULE        ?C?CCASE
  C:0511H         PUBLIC        ?C?CCASE
  -------         ENDMOD        ?C?CCASE

  -------         MODULE        PUTCHAR
  C:07D5H         PUBLIC        _PUTCHAR
  -------         ENDMOD        PUTCHAR

*** WARNING L16: UNCALLED SEGMENT, IGNORED FOR OVERLAY PROCESS
    SEGMENT: ?PR?SHOW?MCU_TEST

*** WARNING L16: UNCALLED SEGMENT, IGNORED FOR OVERLAY PROCESS
    SEGMENT: ?PR?INIT_PARAMETER?MCU_TEST

*** WARNING L16: UNCALLED SEGMENT, IGNORED FOR OVERLAY PROCESS
    SEGMENT: ?PR?TRIG_SUPERSONIC?MCU_TEST

*** WARNING L16: UNCALLED SEGMENT, IGNORED FOR OVERLAY PROCESS
    SEGMENT: ?PR?MEASURE_DISTANCE?MCU_TEST

*** WARNING L16: UNCALLED SEGMENT, IGNORED FOR OVERLAY PROCESS
    SEGMENT: ?PR?_ADDPWM?MCU_PWM

*** WARNING L16: UNCALLED SEGMENT, IGNORED FOR OVERLAY PROCESS
    SEGMENT: ?PR?_REDUCEPWM?MCU_PWM

*** WARNING L16: UNCALLED SEGMENT, IGNORED FOR OVERLAY PROCESS
    SEGMENT: ?PR?_SETPWM?MCU_PWM

Program Size: data=85.1 xdata=0 code=2288
LINK/LOCATE RUN COMPLETE.  7 WARNING(S),  0 ERROR(S)
